target datalayout = "e-m:e-p270:32:32-p271:32:32-p272:64:64-i64:64-i128:128-f80:128-n8:16:32:64-S128"
target triple = "x86_64-pc-linux-gnu"

%"struct.glslang::TAttributeArgs" = type { i32, ptr }
%"struct.std::_Vector_base" = type { %"struct.std::_Vector_base<TIntermNode *, glslang::pool_allocator<TIntermNode *>>::_Vector_impl" }
%"struct.std::_Vector_base<TIntermNode *, glslang::pool_allocator<TIntermNode *>>::_Vector_impl" = type { %"class.glslang::pool_allocator.2", %"struct.std::_Vector_base<TIntermNode *, glslang::pool_allocator<TIntermNode *>>::_Vector_impl_data" }
%"class.glslang::pool_allocator.2" = type { ptr }
%"struct.std::_Vector_base<TIntermNode *, glslang::pool_allocator<TIntermNode *>>::_Vector_impl_data" = type { ptr, ptr, ptr }
%class.TIntermNode = type { ptr, %"struct.glslang::TSourceLoc" }
%"struct.glslang::TSourceLoc" = type { ptr, i32, i32, i32 }
%"struct.std::_List_const_iterator" = type { ptr }
%"class.std::__cxx11::_List_base.68" = type { %"struct.std::__cxx11::_List_base<glslang::TAttributeArgs, glslang::pool_allocator<glslang::TAttributeArgs>>::_List_impl" }
%"struct.std::__cxx11::_List_base<glslang::TAttributeArgs, glslang::pool_allocator<glslang::TAttributeArgs>>::_List_impl" = type { %"class.glslang::pool_allocator.69", %"struct.std::__detail::_List_node_header" }
%"class.glslang::pool_allocator.69" = type { ptr }
%"struct.std::__detail::_List_node_header" = type { %"struct.std::__detail::_List_node_base", i64 }
%"struct.std::__detail::_List_node_base" = type { ptr, ptr }
%"class.glslang::TIntermSwitch" = type <{ %class.TIntermNode, ptr, ptr, i8, i8, [6 x i8] }>
%"struct.std::_List_node" = type { %"struct.std::__detail::_List_node_base", %"struct.__gnu_cxx::__aligned_membuf" }
%"struct.__gnu_cxx::__aligned_membuf" = type { [16 x i8] }

@.str.16 = private unnamed_addr constant [50 x i8] c"attribute with arguments not recognized, skipping\00", align 1
@.str.17 = private unnamed_addr constant [1 x i8] zeroinitializer, align 1
@.str.19 = private unnamed_addr constant [37 x i8] c"attribute does not apply to a switch\00", align 1

; Function Attrs: mustprogress nounwind uwtable
define linkonce_odr noundef ptr @_ZNK9__gnu_cxx16__aligned_membufIN7glslang14TAttributeArgsEE7_M_addrEv(ptr noundef nonnull align 8 dereferenceable(16) %0) #0 comdat align 2 {
  %2 = alloca ptr, align 8
  store ptr %0, ptr %2, align 8
  %3 = load ptr, ptr %2, align 8
  %4 = getelementptr inbounds %"struct.__gnu_cxx::__aligned_membuf", ptr %3, i32 0, i32 0
  ret ptr %4
}

; Function Attrs: mustprogress nounwind uwtable
define linkonce_odr noundef ptr @_ZNK9__gnu_cxx16__aligned_membufIN7glslang14TAttributeArgsEE6_M_ptrEv(ptr noundef nonnull align 8 dereferenceable(16) %0) #0 comdat align 2 {
  %2 = alloca ptr, align 8
  store ptr %0, ptr %2, align 8
  %3 = load ptr, ptr %2, align 8
  %4 = call noundef ptr @_ZNK9__gnu_cxx16__aligned_membufIN7glslang14TAttributeArgsEE7_M_addrEv(ptr noundef nonnull align 8 dereferenceable(16) %3) #7
  ret ptr %4
}

; Function Attrs: mustprogress nounwind uwtable
define linkonce_odr noundef i64 @_ZNKSt6vectorIP11TIntermNodeN7glslang14pool_allocatorIS1_EEE4sizeEv(ptr noundef nonnull align 8 dereferenceable(32) %0) #0 comdat align 2 {
  %2 = alloca ptr, align 8
  store ptr %0, ptr %2, align 8
  %3 = load ptr, ptr %2, align 8
  %4 = getelementptr inbounds %"struct.std::_Vector_base", ptr %3, i32 0, i32 0
  %5 = getelementptr inbounds i8, ptr %4, i64 8
  %6 = getelementptr inbounds %"struct.std::_Vector_base<TIntermNode *, glslang::pool_allocator<TIntermNode *>>::_Vector_impl_data", ptr %5, i32 0, i32 1
  %7 = load ptr, ptr %6, align 8
  %8 = getelementptr inbounds %"struct.std::_Vector_base", ptr %3, i32 0, i32 0
  %9 = getelementptr inbounds i8, ptr %8, i64 8
  %10 = getelementptr inbounds %"struct.std::_Vector_base<TIntermNode *, glslang::pool_allocator<TIntermNode *>>::_Vector_impl_data", ptr %9, i32 0, i32 0
  %11 = load ptr, ptr %10, align 8
  %12 = ptrtoint ptr %7 to i64
  %13 = ptrtoint ptr %11 to i64
  %14 = sub i64 %12, %13
  %15 = sdiv exact i64 %14, 8
  ret i64 %15
}

; Function Attrs: mustprogress nounwind uwtable
define linkonce_odr noundef ptr @_ZNKSt10_List_nodeIN7glslang14TAttributeArgsEE9_M_valptrEv(ptr noundef nonnull align 8 dereferenceable(32) %0) #0 comdat align 2 {
  %2 = alloca ptr, align 8
  store ptr %0, ptr %2, align 8
  %3 = load ptr, ptr %2, align 8
  %4 = getelementptr inbounds %"struct.std::_List_node", ptr %3, i32 0, i32 1
  %5 = call noundef ptr @_ZNK9__gnu_cxx16__aligned_membufIN7glslang14TAttributeArgsEE6_M_ptrEv(ptr noundef nonnull align 8 dereferenceable(16) %4) #7
  ret ptr %5
}

; Function Attrs: mustprogress nounwind uwtable
define linkonce_odr void @_ZNSt20_List_const_iteratorIN7glslang14TAttributeArgsEEC2EPKNSt8__detail15_List_node_baseE(ptr noundef nonnull align 8 dereferenceable(8) %0, ptr noundef %1) unnamed_addr #0 comdat align 2 {
  %3 = alloca ptr, align 8
  %4 = alloca ptr, align 8
  store ptr %0, ptr %3, align 8
  store ptr %1, ptr %4, align 8
  %5 = load ptr, ptr %3, align 8
  %6 = getelementptr inbounds %"struct.std::_List_const_iterator", ptr %5, i32 0, i32 0
  %7 = load ptr, ptr %4, align 8
  store ptr %7, ptr %6, align 8
  ret void
}

; Function Attrs: mustprogress nounwind uwtable
define linkonce_odr noundef nonnull align 8 dereferenceable(8) ptr @_ZNSt20_List_const_iteratorIN7glslang14TAttributeArgsEEppEv(ptr noundef nonnull align 8 dereferenceable(8) %0) #0 comdat align 2 {
  %2 = alloca ptr, align 8
  store ptr %0, ptr %2, align 8
  %3 = load ptr, ptr %2, align 8
  %4 = getelementptr inbounds %"struct.std::_List_const_iterator", ptr %3, i32 0, i32 0
  %5 = load ptr, ptr %4, align 8
  %6 = getelementptr inbounds %"struct.std::__detail::_List_node_base", ptr %5, i32 0, i32 0
  %7 = load ptr, ptr %6, align 8
  %8 = getelementptr inbounds %"struct.std::_List_const_iterator", ptr %3, i32 0, i32 0
  store ptr %7, ptr %8, align 8
  ret ptr %3
}

; Function Attrs: mustprogress nounwind uwtable
define linkonce_odr void @_ZN7glslang13TIntermSwitch14setDontFlattenEv(ptr noundef nonnull align 8 dereferenceable(50) %0) #0 comdat align 2 {
  %2 = alloca ptr, align 8
  store ptr %0, ptr %2, align 8
  %3 = load ptr, ptr %2, align 8
  %4 = getelementptr inbounds %"class.glslang::TIntermSwitch", ptr %3, i32 0, i32 4
  store i8 1, ptr %4, align 1
  ret void
}

; Function Attrs: mustprogress nounwind uwtable
define linkonce_odr void @_ZN7glslang13TIntermSwitch10setFlattenEv(ptr noundef nonnull align 8 dereferenceable(50) %0) #0 comdat align 2 {
  %2 = alloca ptr, align 8
  store ptr %0, ptr %2, align 8
  %3 = load ptr, ptr %2, align 8
  %4 = getelementptr inbounds %"class.glslang::TIntermSwitch", ptr %3, i32 0, i32 3
  store i8 1, ptr %4, align 8
  ret void
}

; Function Attrs: mustprogress nounwind uwtable
define noundef i32 @_ZNK7glslang14TAttributeArgs4sizeEv(ptr noundef nonnull align 8 dereferenceable(16) %0) #0 align 2 {
  %2 = alloca ptr, align 8
  store ptr %0, ptr %2, align 8
  %3 = load ptr, ptr %2, align 8
  %4 = getelementptr inbounds %"struct.glslang::TAttributeArgs", ptr %3, i32 0, i32 1
  %5 = load ptr, ptr %4, align 8
  %6 = icmp eq ptr %5, null
  br i1 %6, label %7, label %8

7:                                                ; preds = %1
  br label %17

8:                                                ; preds = %1
  %9 = getelementptr inbounds %"struct.glslang::TAttributeArgs", ptr %3, i32 0, i32 1
  %10 = load ptr, ptr %9, align 8
  %11 = load ptr, ptr %10, align 8
  %12 = getelementptr inbounds ptr, ptr %11, i64 51
  %13 = load ptr, ptr %12, align 8
  %14 = call noundef nonnull align 8 dereferenceable(32) ptr %13(ptr noundef nonnull align 8 dereferenceable(364) %10)
  %15 = call noundef i64 @_ZNKSt6vectorIP11TIntermNodeN7glslang14pool_allocatorIS1_EEE4sizeEv(ptr noundef nonnull align 8 dereferenceable(32) %14) #7
  %16 = trunc i64 %15 to i32
  br label %17

17:                                               ; preds = %8, %7
  %18 = phi i32 [ 0, %7 ], [ %16, %8 ]
  ret i32 %18
}

; Function Attrs: mustprogress nounwind uwtable
define linkonce_odr noundef ptr @_ZNKSt20_List_const_iteratorIN7glslang14TAttributeArgsEEptEv(ptr noundef nonnull align 8 dereferenceable(8) %0) #0 comdat align 2 {
  %2 = alloca ptr, align 8
  store ptr %0, ptr %2, align 8
  %3 = load ptr, ptr %2, align 8
  %4 = getelementptr inbounds %"struct.std::_List_const_iterator", ptr %3, i32 0, i32 0
  %5 = load ptr, ptr %4, align 8
  %6 = call noundef ptr @_ZNKSt10_List_nodeIN7glslang14TAttributeArgsEE9_M_valptrEv(ptr noundef nonnull align 8 dereferenceable(32) %5)
  ret ptr %6
}

; Function Attrs: mustprogress nounwind uwtable
define linkonce_odr noundef zeroext i1 @_ZStneRKSt20_List_const_iteratorIN7glslang14TAttributeArgsEES4_(ptr noundef nonnull align 8 dereferenceable(8) %0, ptr noundef nonnull align 8 dereferenceable(8) %1) #0 comdat {
  %3 = alloca ptr, align 8
  %4 = alloca ptr, align 8
  store ptr %0, ptr %3, align 8
  store ptr %1, ptr %4, align 8
  %5 = load ptr, ptr %3, align 8
  %6 = getelementptr inbounds %"struct.std::_List_const_iterator", ptr %5, i32 0, i32 0
  %7 = load ptr, ptr %6, align 8
  %8 = load ptr, ptr %4, align 8
  %9 = getelementptr inbounds %"struct.std::_List_const_iterator", ptr %8, i32 0, i32 0
  %10 = load ptr, ptr %9, align 8
  %11 = icmp ne ptr %7, %10
  ret i1 %11
}

; Function Attrs: mustprogress nounwind uwtable
define linkonce_odr ptr @_ZNKSt7__cxx114listIN7glslang14TAttributeArgsENS1_14pool_allocatorIS2_EEE3endEv(ptr noundef nonnull align 8 dereferenceable(32) %0) #0 comdat align 2 {
  %2 = alloca %"struct.std::_List_const_iterator", align 8
  %3 = alloca ptr, align 8
  store ptr %0, ptr %3, align 8
  %4 = load ptr, ptr %3, align 8
  %5 = getelementptr inbounds %"class.std::__cxx11::_List_base.68", ptr %4, i32 0, i32 0
  %6 = getelementptr inbounds %"struct.std::__cxx11::_List_base<glslang::TAttributeArgs, glslang::pool_allocator<glslang::TAttributeArgs>>::_List_impl", ptr %5, i32 0, i32 1
  call void @_ZNSt20_List_const_iteratorIN7glslang14TAttributeArgsEEC2EPKNSt8__detail15_List_node_baseE(ptr noundef nonnull align 8 dereferenceable(8) %2, ptr noundef %6) #7
  %7 = getelementptr inbounds %"struct.std::_List_const_iterator", ptr %2, i32 0, i32 0
  %8 = load ptr, ptr %7, align 8
  ret ptr %8
}

; Function Attrs: mustprogress nounwind uwtable
define linkonce_odr ptr @_ZNKSt7__cxx114listIN7glslang14TAttributeArgsENS1_14pool_allocatorIS2_EEE5beginEv(ptr noundef nonnull align 8 dereferenceable(32) %0) #0 comdat align 2 {
  %2 = alloca %"struct.std::_List_const_iterator", align 8
  %3 = alloca ptr, align 8
  store ptr %0, ptr %3, align 8
  %4 = load ptr, ptr %3, align 8
  %5 = getelementptr inbounds %"class.std::__cxx11::_List_base.68", ptr %4, i32 0, i32 0
  %6 = getelementptr inbounds %"struct.std::__cxx11::_List_base<glslang::TAttributeArgs, glslang::pool_allocator<glslang::TAttributeArgs>>::_List_impl", ptr %5, i32 0, i32 1
  %7 = getelementptr inbounds %"struct.std::__detail::_List_node_base", ptr %6, i32 0, i32 0
  %8 = load ptr, ptr %7, align 8
  call void @_ZNSt20_List_const_iteratorIN7glslang14TAttributeArgsEEC2EPKNSt8__detail15_List_node_baseE(ptr noundef nonnull align 8 dereferenceable(8) %2, ptr noundef %8) #7
  %9 = getelementptr inbounds %"struct.std::_List_const_iterator", ptr %2, i32 0, i32 0
  %10 = load ptr, ptr %9, align 8
  ret ptr %10
}

; Function Attrs: mustprogress nounwind uwtable
define void @_ZN7glslang13TParseContext22handleSwitchAttributesERKNS_5TListINS_14TAttributeArgsEEEP11TIntermNode(ptr noundef nonnull align 8 dereferenceable(30232) %0, ptr noundef nonnull align 8 dereferenceable(32) %1, ptr noundef %2) #0 align 2 {
  %4 = alloca ptr, align 8
  %5 = alloca ptr, align 8
  %6 = alloca ptr, align 8
  %7 = alloca ptr, align 8
  %8 = alloca %"struct.std::_List_const_iterator", align 8
  %9 = alloca %"struct.std::_List_const_iterator", align 8
  store ptr %0, ptr %4, align 8
  store ptr %1, ptr %5, align 8
  store ptr %2, ptr %6, align 8
  %10 = load ptr, ptr %4, align 8
  %11 = load ptr, ptr %6, align 8
  %12 = load ptr, ptr %11, align 8
  %13 = getelementptr inbounds ptr, ptr %12, i64 10
  %14 = load ptr, ptr %13, align 8
  %15 = call noundef ptr %14(ptr noundef nonnull align 8 dereferenceable(32) %11)
  store ptr %15, ptr %7, align 8
  %16 = load ptr, ptr %7, align 8
  %17 = icmp eq ptr %16, null
  br i1 %17, label %18, label %19

18:                                               ; preds = %3
  br label %61

19:                                               ; preds = %3
  %20 = load ptr, ptr %5, align 8
  %21 = call ptr @_ZNKSt7__cxx114listIN7glslang14TAttributeArgsENS1_14pool_allocatorIS2_EEE5beginEv(ptr noundef nonnull align 8 dereferenceable(32) %20) #7
  %22 = getelementptr inbounds %"struct.std::_List_const_iterator", ptr %8, i32 0, i32 0
  store ptr %21, ptr %22, align 8
  br label %23

23:                                               ; preds = %59, %19
  %24 = load ptr, ptr %5, align 8
  %25 = call ptr @_ZNKSt7__cxx114listIN7glslang14TAttributeArgsENS1_14pool_allocatorIS2_EEE3endEv(ptr noundef nonnull align 8 dereferenceable(32) %24) #7
  %26 = getelementptr inbounds %"struct.std::_List_const_iterator", ptr %9, i32 0, i32 0
  store ptr %25, ptr %26, align 8
  %27 = call noundef zeroext i1 @_ZStneRKSt20_List_const_iteratorIN7glslang14TAttributeArgsEES4_(ptr noundef nonnull align 8 dereferenceable(8) %8, ptr noundef nonnull align 8 dereferenceable(8) %9) #7
  br i1 %27, label %28, label %61

28:                                               ; preds = %23
  %29 = call noundef ptr @_ZNKSt20_List_const_iteratorIN7glslang14TAttributeArgsEEptEv(ptr noundef nonnull align 8 dereferenceable(8) %8) #7
  %30 = call noundef i32 @_ZNK7glslang14TAttributeArgs4sizeEv(ptr noundef nonnull align 8 dereferenceable(16) %29)
  %31 = icmp sgt i32 %30, 0
  br i1 %31, label %32, label %41

32:                                               ; preds = %28
  %33 = load ptr, ptr %6, align 8
  %34 = load ptr, ptr %33, align 8
  %35 = getelementptr inbounds ptr, ptr %34, i64 0
  %36 = load ptr, ptr %35, align 8
  %37 = call noundef nonnull align 8 dereferenceable(24) ptr %36(ptr noundef nonnull align 8 dereferenceable(32) %33)
  %38 = load ptr, ptr %10, align 8
  %39 = getelementptr inbounds ptr, ptr %38, i64 44
  %40 = load ptr, ptr %39, align 8
  call void (ptr, ptr, ptr, ptr, ptr, ...) %40(ptr noundef nonnull align 8 dereferenceable(1280) %10, ptr noundef nonnull align 8 dereferenceable(24) %37, ptr noundef @.str.16, ptr noundef @.str.17, ptr noundef @.str.17)
  br label %59

41:                                               ; preds = %28
  %42 = call noundef ptr @_ZNKSt20_List_const_iteratorIN7glslang14TAttributeArgsEEptEv(ptr noundef nonnull align 8 dereferenceable(8) %8) #7
  %43 = getelementptr inbounds %"struct.glslang::TAttributeArgs", ptr %42, i32 0, i32 0
  %44 = load i32, ptr %43, align 8
  switch i32 %44, label %49 [
    i32 7, label %45
    i32 2, label %47
  ]

45:                                               ; preds = %41
  %46 = load ptr, ptr %7, align 8
  call void @_ZN7glslang13TIntermSwitch10setFlattenEv(ptr noundef nonnull align 8 dereferenceable(50) %46)
  br label %58

47:                                               ; preds = %41
  %48 = load ptr, ptr %7, align 8
  call void @_ZN7glslang13TIntermSwitch14setDontFlattenEv(ptr noundef nonnull align 8 dereferenceable(50) %48)
  br label %58

49:                                               ; preds = %41
  %50 = load ptr, ptr %6, align 8
  %51 = load ptr, ptr %50, align 8
  %52 = getelementptr inbounds ptr, ptr %51, i64 0
  %53 = load ptr, ptr %52, align 8
  %54 = call noundef nonnull align 8 dereferenceable(24) ptr %53(ptr noundef nonnull align 8 dereferenceable(32) %50)
  %55 = load ptr, ptr %10, align 8
  %56 = getelementptr inbounds ptr, ptr %55, i64 44
  %57 = load ptr, ptr %56, align 8
  call void (ptr, ptr, ptr, ptr, ptr, ...) %57(ptr noundef nonnull align 8 dereferenceable(1280) %10, ptr noundef nonnull align 8 dereferenceable(24) %54, ptr noundef @.str.19, ptr noundef @.str.17, ptr noundef @.str.17)
  br label %58

58:                                               ; preds = %49, %47, %45
  br label %59

59:                                               ; preds = %58, %32
  %60 = call noundef nonnull align 8 dereferenceable(8) ptr @_ZNSt20_List_const_iteratorIN7glslang14TAttributeArgsEEppEv(ptr noundef nonnull align 8 dereferenceable(8) %8) #7
  br label %23, !llvm.loop !7

61:                                               ; preds = %23, %18
  ret void
}